; Function Attrs: mustprogress uwtable
define internal fastcc noundef zeroext i1 @"_ZZN3fpa6solver9add_valueEPN3euf5enodeER5modelR10ref_vectorI4expr11ast_managerEENK3$_0clEv"(ptr nocapture noundef nonnull readonly align 8 dereferenceable(24) %this) unnamed_addr #3 align 2 personality ptr @__gxx_personality_v0 {
entry:
  %ref.tmp = alloca %class.obj_ref.61, align 8
  %0 = getelementptr inbounds i8, ptr %this, i64 8
  %1 = load ptr, ptr %0, align 8
  %2 = load ptr, ptr %this, align 8
  %3 = load ptr, ptr %2, align 8
  %cmp.i = icmp eq ptr %3, null
  br i1 %cmp.i, label %if.then, label %if.end

if.then:                                          ; preds = %entry
  %m_converter = getelementptr inbounds i8, ptr %1, i64 128
  %4 = getelementptr inbounds i8, ptr %this, i64 16
  %5 = load ptr, ptr %4, align 8
  %6 = load ptr, ptr %5, align 8
  call void @_ZN24fpa2bv_converter_wrapped4wrapEP4expr(ptr nonnull sret(%class.obj_ref.61) align 8 %ref.tmp, ptr noundef nonnull align 8 dereferenceable(768) %m_converter, ptr noundef %6)
  %7 = load ptr, ptr %this, align 8
  %8 = load ptr, ptr %7, align 8
  %9 = load ptr, ptr %ref.tmp, align 8
  store ptr %9, ptr %7, align 8
  store ptr %8, ptr %ref.tmp, align 8
  %tobool.not.i.i.i = icmp eq ptr %8, null
  br i1 %tobool.not.i.i.i, label %_ZN7obj_refI3app11ast_managerED2Ev.exit, label %if.then.i.i.i.i

if.then.i.i.i.i:                                  ; preds = %if.then
  %m_manager.i.i.i = getelementptr inbounds i8, ptr %ref.tmp, i64 8
  %10 = load ptr, ptr %m_manager.i.i.i, align 8
  %m_ref_count.i.i.i.i.i = getelementptr inbounds i8, ptr %8, i64 8
  %11 = load i32, ptr %m_ref_count.i.i.i.i.i, align 4
  %dec.i.i.i.i.i = add i32 %11, -1
  store i32 %dec.i.i.i.i.i, ptr %m_ref_count.i.i.i.i.i, align 4
  %cmp.i.i.i.i = icmp eq i32 %dec.i.i.i.i.i, 0
  br i1 %cmp.i.i.i.i, label %if.then2.i.i.i.i, label %_ZN7obj_refI3app11ast_managerED2Ev.exit

if.then2.i.i.i.i:                                 ; preds = %if.then.i.i.i.i
  invoke void @_ZN11ast_manager11delete_nodeEP3ast(ptr noundef nonnull align 8 dereferenceable(976) %10, ptr noundef nonnull %8)
          to label %_ZN7obj_refI3app11ast_managerED2Ev.exit unwind label %terminate.lpad.i

terminate.lpad.i:                                 ; preds = %if.then2.i.i.i.i
  %12 = landingpad { ptr, i32 }
          catch ptr null
  %13 = extractvalue { ptr, i32 } %12, 0
  call void @__clang_call_terminate(ptr %13) #18
  unreachable

_ZN7obj_refI3app11ast_managerED2Ev.exit:          ; preds = %if.then2.i.i.i.i, %if.then.i.i.i.i, %if.then
  store ptr null, ptr %ref.tmp, align 8
  %.pre = load ptr, ptr %this, align 8
  %.pre2 = load ptr, ptr %.pre, align 8
  br label %if.end

if.end:                                           ; preds = %_ZN7obj_refI3app11ast_managerED2Ev.exit, %entry
  %14 = phi ptr [ %.pre2, %_ZN7obj_refI3app11ast_managerED2Ev.exit ], [ %3, %entry ]
  %call4 = call noundef ptr @_ZNK3euf13th_euf_solver10expr2enodeEP4expr(ptr noundef nonnull align 8 dereferenceable(108) %1, ptr noundef %14)
  %cmp = icmp ne ptr %call4, null
  ret i1 %cmp
}